target datalayout = "e-m:e-p270:32:32-p271:32:32-p272:64:64-i64:64-i128:128-f80:128-n8:16:32:64-S128"
target triple = "x86_64-pc-linux-gnu"

%struct._object = type { %union.anon, ptr }
%union.anon = type { i64 }

@.str.5 = private unnamed_addr constant [6 x i8] c"start\00", align 1
@_Py_NoneStruct = external global %struct._object, align 8

; Function Attrs: nounwind uwtable
define internal ptr @_tracemalloc_start_impl(ptr noundef %0, i32 noundef %1) #0 {
  %3 = alloca ptr, align 8
  %4 = alloca ptr, align 8
  %5 = alloca i32, align 4
  store ptr %0, ptr %4, align 8, !tbaa !4
  store i32 %1, ptr %5, align 4, !tbaa !13
  %6 = load i32, ptr %5, align 4, !tbaa !13
  %7 = call i32 @_PyTraceMalloc_Start(i32 noundef %6)
  %8 = icmp slt i32 %7, 0
  br i1 %8, label %9, label %10

9:                                                ; preds = %2
  store ptr null, ptr %3, align 8
  br label %11

10:                                               ; preds = %2
  store ptr @_Py_NoneStruct, ptr %3, align 8
  br label %11

11:                                               ; preds = %10, %9
  %12 = load ptr, ptr %3, align 8
  ret ptr %12
}

; Function Attrs: nounwind uwtable
define internal ptr @_tracemalloc_start(ptr noundef %0, ptr noundef %1, i64 noundef %2) #0 {
  %4 = alloca ptr, align 8
  %5 = alloca ptr, align 8
  %6 = alloca i64, align 8
  %7 = alloca ptr, align 8
  %8 = alloca i32, align 4
  store ptr %0, ptr %4, align 8, !tbaa !4
  store ptr %1, ptr %5, align 8, !tbaa !9
  store i64 %2, ptr %6, align 8, !tbaa !11
  call void @llvm.lifetime.start.p0(i64 8, ptr %7) #3
  store ptr null, ptr %7, align 8, !tbaa !4
  call void @llvm.lifetime.start.p0(i64 4, ptr %8) #3
  store i32 1, ptr %8, align 4, !tbaa !13
  %9 = load i64, ptr %6, align 8, !tbaa !11
  %10 = icmp sle i64 0, %9
  br i1 %10, label %11, label %14

11:                                               ; preds = %3
  %12 = load i64, ptr %6, align 8, !tbaa !11
  %13 = icmp sle i64 %12, 1
  br i1 %13, label %19, label %14

14:                                               ; preds = %11, %3
  %15 = load i64, ptr %6, align 8, !tbaa !11
  %16 = call i32 @_PyArg_CheckPositional(ptr noundef @.str.5, i64 noundef %15, i64 noundef 0, i64 noundef 1)
  %17 = icmp ne i32 %16, 0
  br i1 %17, label %19, label %18

18:                                               ; preds = %14
  br label %39

19:                                               ; preds = %14, %11
  %20 = load i64, ptr %6, align 8, !tbaa !11
  %21 = icmp slt i64 %20, 1
  br i1 %21, label %22, label %23

22:                                               ; preds = %19
  br label %35

23:                                               ; preds = %19
  %24 = load ptr, ptr %5, align 8, !tbaa !9
  %25 = getelementptr ptr, ptr %24, i64 0
  %26 = load ptr, ptr %25, align 8, !tbaa !4
  %27 = call i32 @PyLong_AsInt(ptr noundef %26)
  store i32 %27, ptr %8, align 4, !tbaa !13
  %28 = load i32, ptr %8, align 4, !tbaa !13
  %29 = icmp eq i32 %28, -1
  br i1 %29, label %30, label %34

30:                                               ; preds = %23
  %31 = call ptr @PyErr_Occurred()
  %32 = icmp ne ptr %31, null
  br i1 %32, label %33, label %34

33:                                               ; preds = %30
  br label %39

34:                                               ; preds = %30, %23
  br label %35

35:                                               ; preds = %34, %22
  %36 = load ptr, ptr %4, align 8, !tbaa !4
  %37 = load i32, ptr %8, align 4, !tbaa !13
  %38 = call ptr @_tracemalloc_start_impl(ptr noundef %36, i32 noundef %37)
  store ptr %38, ptr %7, align 8, !tbaa !4
  br label %39

39:                                               ; preds = %35, %33, %18
  %40 = load ptr, ptr %7, align 8, !tbaa !4
  call void @llvm.lifetime.end.p0(i64 4, ptr %8) #3
  call void @llvm.lifetime.end.p0(i64 8, ptr %7) #3
  ret ptr %40
}