; Function Attrs: nounwind uwtable
define internal ptr @_tracemalloc_start(ptr readnone captures(none) %0, ptr noundef readonly captures(none) %1, i64 noundef %2) #0 {
  %or.cond = icmp ult i64 %2, 2
  br i1 %or.cond, label %6, label %4

4:                                                ; preds = %3
  %5 = tail call i32 @_PyArg_CheckPositional(ptr noundef nonnull @.str.5, i64 noundef %2, i64 noundef 0, i64 noundef 1) #2
  %.not = icmp eq i32 %5, 0
  br i1 %.not, label %17, label %6

6:                                                ; preds = %3, %4
  %7 = icmp slt i64 %2, 1
  br i1 %7, label %14, label %8

8:                                                ; preds = %6
  %9 = load ptr, ptr %1, align 8, !tbaa !4
  %10 = tail call i32 @PyLong_AsInt(ptr noundef %9) #2
  %11 = icmp eq i32 %10, -1
  br i1 %11, label %12, label %14

12:                                               ; preds = %8
  %13 = tail call ptr @PyErr_Occurred() #2
  %.not11 = icmp eq ptr %13, null
  br i1 %.not11, label %14, label %17

14:                                               ; preds = %8, %12, %6
  %.0 = phi i32 [ 1, %6 ], [ -1, %12 ], [ %10, %8 ]
  %15 = tail call i32 @_PyTraceMalloc_Start(i32 noundef %.0) #2
  %16 = icmp slt i32 %15, 0
  %._Py_NoneStruct.i = select i1 %16, ptr null, ptr @_Py_NoneStruct
  br label %17

17:                                               ; preds = %12, %4, %14
  %.09 = phi ptr [ %._Py_NoneStruct.i, %14 ], [ null, %12 ], [ null, %4 ]
  ret ptr %.09
}